target datalayout = "e-m:e-p270:32:32-p271:32:32-p272:64:64-i64:64-i128:128-f80:128-n8:16:32:64-S128"
target triple = "x86_64-pc-linux-gnu"

%"class.vcg::Point3" = type { [3 x float] }
%"class.vcg::TrackMode" = type { ptr }
%"class.std::vector" = type { %"struct.std::_Vector_base" }
%"struct.std::_Vector_base" = type { %"struct.std::_Vector_base<vcg::Point3<float>, std::allocator<vcg::Point3<float>>>::_Vector_impl" }
%"struct.std::_Vector_base<vcg::Point3<float>, std::allocator<vcg::Point3<float>>>::_Vector_impl" = type { %"struct.std::_Vector_base<vcg::Point3<float>, std::allocator<vcg::Point3<float>>>::_Vector_impl_data" }
%"struct.std::_Vector_base<vcg::Point3<float>, std::allocator<vcg::Point3<float>>>::_Vector_impl_data" = type { ptr, ptr, ptr }
%"class.vcg::PathMode" = type { %"class.vcg::TrackMode", %"class.std::vector", i8, float, float, float, float, %"class.vcg::Point3", float, %"class.vcg::Point3" }

; Function Attrs: mustprogress nounwind uwtable
define linkonce_odr void @_ZN3vcg6Point3IfEC2Efff(ptr noundef nonnull align 4 dereferenceable(12) %0, float noundef %1, float noundef %2, float noundef %3) unnamed_addr #0 comdat align 2 {
  %5 = alloca ptr, align 8
  %6 = alloca float, align 4
  %7 = alloca float, align 4
  %8 = alloca float, align 4
  store ptr %0, ptr %5, align 8
  store float %1, ptr %6, align 4
  store float %2, ptr %7, align 4
  store float %3, ptr %8, align 4
  %9 = load ptr, ptr %5, align 8
  %10 = load float, ptr %6, align 4
  %11 = getelementptr inbounds %"class.vcg::Point3", ptr %9, i32 0, i32 0
  %12 = getelementptr inbounds [3 x float], ptr %11, i64 0, i64 0
  store float %10, ptr %12, align 4
  %13 = load float, ptr %7, align 4
  %14 = getelementptr inbounds %"class.vcg::Point3", ptr %9, i32 0, i32 0
  %15 = getelementptr inbounds [3 x float], ptr %14, i64 0, i64 1
  store float %13, ptr %15, align 4
  %16 = load float, ptr %8, align 4
  %17 = getelementptr inbounds %"class.vcg::Point3", ptr %9, i32 0, i32 0
  %18 = getelementptr inbounds [3 x float], ptr %17, i64 0, i64 2
  store float %16, ptr %18, align 4
  ret void
}

; Function Attrs: mustprogress uwtable
define linkonce_odr { <2 x float>, float } @_ZNK3vcg6Point3IfEmiERKS1_(ptr noundef nonnull align 4 dereferenceable(12) %0, ptr noundef nonnull align 4 dereferenceable(12) %1) #3 comdat align 2 {
  %3 = alloca %"class.vcg::Point3", align 4
  %4 = alloca ptr, align 8
  %5 = alloca ptr, align 8
  %6 = alloca { <2 x float>, float }, align 8
  store ptr %0, ptr %4, align 8
  store ptr %1, ptr %5, align 8
  %7 = load ptr, ptr %4, align 8
  %8 = getelementptr inbounds %"class.vcg::Point3", ptr %7, i32 0, i32 0
  %9 = getelementptr inbounds [3 x float], ptr %8, i64 0, i64 0
  %10 = load float, ptr %9, align 4
  %11 = load ptr, ptr %5, align 8
  %12 = getelementptr inbounds %"class.vcg::Point3", ptr %11, i32 0, i32 0
  %13 = getelementptr inbounds [3 x float], ptr %12, i64 0, i64 0
  %14 = load float, ptr %13, align 4
  %15 = fsub float %10, %14
  %16 = getelementptr inbounds %"class.vcg::Point3", ptr %7, i32 0, i32 0
  %17 = getelementptr inbounds [3 x float], ptr %16, i64 0, i64 1
  %18 = load float, ptr %17, align 4
  %19 = load ptr, ptr %5, align 8
  %20 = getelementptr inbounds %"class.vcg::Point3", ptr %19, i32 0, i32 0
  %21 = getelementptr inbounds [3 x float], ptr %20, i64 0, i64 1
  %22 = load float, ptr %21, align 4
  %23 = fsub float %18, %22
  %24 = getelementptr inbounds %"class.vcg::Point3", ptr %7, i32 0, i32 0
  %25 = getelementptr inbounds [3 x float], ptr %24, i64 0, i64 2
  %26 = load float, ptr %25, align 4
  %27 = load ptr, ptr %5, align 8
  %28 = getelementptr inbounds %"class.vcg::Point3", ptr %27, i32 0, i32 0
  %29 = getelementptr inbounds [3 x float], ptr %28, i64 0, i64 2
  %30 = load float, ptr %29, align 4
  %31 = fsub float %26, %30
  call void @_ZN3vcg6Point3IfEC2Efff(ptr noundef nonnull align 4 dereferenceable(12) %3, float noundef %15, float noundef %23, float noundef %31)
  %32 = getelementptr inbounds %"class.vcg::Point3", ptr %3, i32 0, i32 0
  call void @llvm.memcpy.p0.p0.i64(ptr align 8 %6, ptr align 4 %32, i64 12, i1 false)
  %33 = load { <2 x float>, float }, ptr %6, align 8
  ret { <2 x float>, float } %33
}

; Function Attrs: mustprogress nounwind uwtable
define noundef float @_ZN3vcg8PathMode9NormalizeEf(ptr noundef nonnull align 8 dereferenceable(80) %0, float noundef %1) #0 align 2 {
  %3 = alloca float, align 4
  %4 = alloca ptr, align 8
  %5 = alloca float, align 4
  %6 = alloca double, align 8
  %7 = alloca float, align 4
  store ptr %0, ptr %4, align 8
  store float %1, ptr %5, align 4
  %8 = load ptr, ptr %4, align 8
  %9 = getelementptr inbounds %"class.vcg::PathMode", ptr %8, i32 0, i32 2
  %10 = load i8, ptr %9, align 8
  %11 = trunc i8 %10 to i1
  br i1 %11, label %12, label %24

12:                                               ; preds = %2
  %13 = load float, ptr %5, align 4
  %14 = fpext float %13 to double
  %15 = call double @modf(double noundef %14, ptr noundef %6) #7
  %16 = fptrunc double %15 to float
  store float %16, ptr %7, align 4
  %17 = load float, ptr %7, align 4
  %18 = fcmp olt float %17, 0.000000e+00
  br i1 %18, label %19, label %22

19:                                               ; preds = %12
  %20 = load float, ptr %7, align 4
  %21 = fadd float %20, 1.000000e+00
  store float %21, ptr %7, align 4
  br label %22

22:                                               ; preds = %19, %12
  %23 = load float, ptr %7, align 4
  store float %23, ptr %3, align 4
  br label %34

24:                                               ; preds = %2
  %25 = load float, ptr %5, align 4
  %26 = fcmp olt float %25, 0.000000e+00
  br i1 %26, label %27, label %28

27:                                               ; preds = %24
  store float 0.000000e+00, ptr %3, align 4
  br label %34

28:                                               ; preds = %24
  %29 = load float, ptr %5, align 4
  %30 = fcmp ogt float %29, 1.000000e+00
  br i1 %30, label %31, label %32

31:                                               ; preds = %28
  store float 1.000000e+00, ptr %3, align 4
  br label %34

32:                                               ; preds = %28
  %33 = load float, ptr %5, align 4
  store float %33, ptr %3, align 4
  br label %34

34:                                               ; preds = %32, %31, %27, %22
  %35 = load float, ptr %3, align 4
  ret float %35
}

; Function Attrs: mustprogress nounwind uwtable
define linkonce_odr void @_ZN3vcg6Point3IfEC2Ev(ptr noundef nonnull align 4 dereferenceable(12) %0) unnamed_addr #0 comdat align 2 {
  %2 = alloca ptr, align 8
  store ptr %0, ptr %2, align 8
  ret void
}

; Function Attrs: mustprogress uwtable
define void @_ZN3vcg8PathMode5ApplyEPNS_9TrackballEf(ptr noundef nonnull align 8 dereferenceable(80) %0, ptr noundef %1, float noundef %2) unnamed_addr #2 align 2 {
  %4 = alloca ptr, align 8
  %5 = alloca ptr, align 8
  %6 = alloca float, align 4
  %7 = alloca float, align 4
  %8 = alloca float, align 4
  %9 = alloca %"class.vcg::Point3", align 4
  %10 = alloca %"class.vcg::Point3", align 4
  %11 = alloca %"class.vcg::Point3", align 4
  %12 = alloca %"class.vcg::Point3", align 4
  %13 = alloca %"class.vcg::Point3", align 4
  %14 = alloca { <2 x float>, float }, align 8
  %15 = alloca { <2 x float>, float }, align 4
  store ptr %0, ptr %4, align 8
  store ptr %1, ptr %5, align 8
  store float %2, ptr %6, align 4
  %16 = load ptr, ptr %4, align 8
  %17 = getelementptr inbounds %"class.vcg::PathMode", ptr %16, i32 0, i32 3
  %18 = load float, ptr %17, align 4
  %19 = getelementptr inbounds %"class.vcg::PathMode", ptr %16, i32 0, i32 8
  store float %18, ptr %19, align 8
  %20 = getelementptr inbounds %"class.vcg::PathMode", ptr %16, i32 0, i32 7
  %21 = getelementptr inbounds %"class.vcg::PathMode", ptr %16, i32 0, i32 9
  call void @llvm.memcpy.p0.p0.i64(ptr align 4 %21, ptr align 4 %20, i64 12, i1 false)
  %22 = getelementptr inbounds %"class.vcg::PathMode", ptr %16, i32 0, i32 6
  %23 = load float, ptr %22, align 8
  %24 = fmul float %23, 5.000000e-01
  store float %24, ptr %7, align 4
  %25 = load float, ptr %6, align 4
  %26 = load float, ptr %7, align 4
  %27 = fmul float %25, %26
  %28 = getelementptr inbounds %"class.vcg::PathMode", ptr %16, i32 0, i32 5
  %29 = load float, ptr %28, align 4
  %30 = fdiv float %27, %29
  store float %30, ptr %8, align 4
  call void @_ZN3vcg6Point3IfEC2Ev(ptr noundef nonnull align 4 dereferenceable(12) %9)
  call void @_ZN3vcg6Point3IfEC2Ev(ptr noundef nonnull align 4 dereferenceable(12) %10)
  call void @_ZN3vcg6Point3IfEC2Ev(ptr noundef nonnull align 4 dereferenceable(12) %11)
  call void @_ZN3vcg6Point3IfEC2Ev(ptr noundef nonnull align 4 dereferenceable(12) %12)
  %31 = getelementptr inbounds %"class.vcg::PathMode", ptr %16, i32 0, i32 3
  %32 = load float, ptr %31, align 4
  call void @_ZN3vcg8PathMode9GetPointsEfRNS_6Point3IfEES3_S3_(ptr noundef nonnull align 8 dereferenceable(80) %16, float noundef %32, ptr noundef nonnull align 4 dereferenceable(12) %9, ptr noundef nonnull align 4 dereferenceable(12) %11, ptr noundef nonnull align 4 dereferenceable(12) %12)
  %33 = getelementptr inbounds %"class.vcg::PathMode", ptr %16, i32 0, i32 3
  %34 = load float, ptr %33, align 4
  %35 = load float, ptr %8, align 4
  %36 = fadd float %34, %35
  %37 = call noundef float @_ZN3vcg8PathMode9NormalizeEf(ptr noundef nonnull align 8 dereferenceable(80) %16, float noundef %36)
  %38 = getelementptr inbounds %"class.vcg::PathMode", ptr %16, i32 0, i32 3
  store float %37, ptr %38, align 4
  %39 = getelementptr inbounds %"class.vcg::PathMode", ptr %16, i32 0, i32 3
  %40 = load float, ptr %39, align 4
  call void @_ZN3vcg8PathMode9GetPointsEfRNS_6Point3IfEES3_S3_(ptr noundef nonnull align 8 dereferenceable(80) %16, float noundef %40, ptr noundef nonnull align 4 dereferenceable(12) %10, ptr noundef nonnull align 4 dereferenceable(12) %11, ptr noundef nonnull align 4 dereferenceable(12) %12)
  %41 = load ptr, ptr %5, align 8
  %42 = call { <2 x float>, float } @_ZNK3vcg6Point3IfEmiERKS1_(ptr noundef nonnull align 4 dereferenceable(12) %10, ptr noundef nonnull align 4 dereferenceable(12) %9)
  %43 = getelementptr inbounds %"class.vcg::Point3", ptr %13, i32 0, i32 0
  store { <2 x float>, float } %42, ptr %14, align 8
  call void @llvm.memcpy.p0.p0.i64(ptr align 4 %43, ptr align 8 %14, i64 12, i1 false)
  call void @llvm.memcpy.p0.p0.i64(ptr align 4 %15, ptr align 4 %13, i64 12, i1 false)
  %44 = getelementptr inbounds { <2 x float>, float }, ptr %15, i32 0, i32 0
  %45 = load <2 x float>, ptr %44, align 4
  %46 = getelementptr inbounds { <2 x float>, float }, ptr %15, i32 0, i32 1
  %47 = load float, ptr %46, align 4
  call void @_ZN3vcg9Trackball9TranslateENS_6Point3IfEE(ptr noundef nonnull align 8 dereferenceable(597) %41, <2 x float> %45, float %47)
  ret void
}