; Function Attrs: mustprogress uwtable
define void @_ZN3vcg8PathMode5ApplyEPNS_9TrackballEf(ptr nocapture noundef nonnull align 8 dereferenceable(80) %0, ptr noundef %1, float noundef %2) unnamed_addr #3 align 2 {
  %4 = alloca double, align 8
  %5 = alloca %"class.vcg::Point3", align 8
  %6 = alloca %"class.vcg::Point3", align 8
  %7 = alloca %"class.vcg::Point3", align 4
  %8 = alloca %"class.vcg::Point3", align 4
  %9 = getelementptr inbounds i8, ptr %0, i64 36
  %10 = load float, ptr %9, align 4
  %11 = getelementptr inbounds i8, ptr %0, i64 64
  store float %10, ptr %11, align 8
  %12 = getelementptr inbounds i8, ptr %0, i64 52
  %13 = getelementptr inbounds i8, ptr %0, i64 68
  tail call void @llvm.memcpy.p0.p0.i64(ptr noundef nonnull align 4 dereferenceable(12) %13, ptr noundef nonnull align 4 dereferenceable(12) %12, i64 12, i1 false)
  %14 = getelementptr inbounds i8, ptr %0, i64 48
  %15 = load float, ptr %14, align 8
  %16 = fmul float %15, 5.000000e-01
  %17 = fmul float %16, %2
  %18 = getelementptr inbounds i8, ptr %0, i64 44
  %19 = load float, ptr %18, align 4
  %20 = fdiv float %17, %19
  call void @_ZN3vcg8PathMode9GetPointsEfRNS_6Point3IfEES3_S3_(ptr noundef nonnull align 8 dereferenceable(80) %0, float noundef %10, ptr noundef nonnull align 4 dereferenceable(12) %5, ptr noundef nonnull align 4 dereferenceable(12) %7, ptr noundef nonnull align 4 dereferenceable(12) %8)
  %21 = load float, ptr %9, align 4
  %22 = fadd float %21, %20
  call void @llvm.lifetime.start.p0(i64 8, ptr nonnull %4)
  %23 = getelementptr inbounds i8, ptr %0, i64 32
  %24 = load i8, ptr %23, align 8
  %25 = and i8 %24, 1
  %.not.i = icmp eq i8 %25, 0
  br i1 %.not.i, label %32, label %26

26:                                               ; preds = %3
  %27 = fpext float %22 to double
  %28 = call double @modf(double noundef %27, ptr noundef nonnull %4) #34
  %29 = fptrunc double %28 to float
  %30 = fcmp olt float %29, 0.000000e+00
  %31 = fadd float %29, 1.000000e+00
  %.0.i = select i1 %30, float %31, float %29
  br label %_ZN3vcg8PathMode9NormalizeEf.exit

32:                                               ; preds = %3
  %33 = fcmp olt float %22, 0.000000e+00
  br i1 %33, label %_ZN3vcg8PathMode9NormalizeEf.exit, label %34

34:                                               ; preds = %32
  %35 = fcmp ogt float %22, 1.000000e+00
  %..i = select i1 %35, float 1.000000e+00, float %22
  br label %_ZN3vcg8PathMode9NormalizeEf.exit

_ZN3vcg8PathMode9NormalizeEf.exit:                ; preds = %26, %32, %34
  %.09.i = phi float [ %.0.i, %26 ], [ 0.000000e+00, %32 ], [ %..i, %34 ]
  call void @llvm.lifetime.end.p0(i64 8, ptr nonnull %4)
  store float %.09.i, ptr %9, align 4
  call void @_ZN3vcg8PathMode9GetPointsEfRNS_6Point3IfEES3_S3_(ptr noundef nonnull align 8 dereferenceable(80) %0, float noundef %.09.i, ptr noundef nonnull align 4 dereferenceable(12) %6, ptr noundef nonnull align 4 dereferenceable(12) %7, ptr noundef nonnull align 4 dereferenceable(12) %8)
  %36 = load <2 x float>, ptr %6, align 8
  %37 = load <2 x float>, ptr %5, align 8
  %38 = fsub <2 x float> %36, %37
  %39 = getelementptr inbounds i8, ptr %6, i64 8
  %40 = load float, ptr %39, align 8
  %41 = getelementptr inbounds i8, ptr %5, i64 8
  %42 = load float, ptr %41, align 8
  %43 = fsub float %40, %42
  tail call void @_ZN3vcg9Trackball9TranslateENS_6Point3IfEE(ptr noundef nonnull align 8 dereferenceable(597) %1, <2 x float> %38, float %43)
  ret void
}